(dp0
V!
p1
I1597
sV%
p2
I147
sV$
p3
I579
sV'
p4
I28683
sV&
p5
I166
sV)
p6
I2495
sV(
p7
I2464
sV+
p8
I1
sV*
p9
I173
sV-
p10
I15401
sV,
p11
I58982
sV/
p12
I236
sV.
p13
I55578
sV1
p14
I5182
sV0
p15
I4458
sV3
p16
I1732
sV2
p17
I2621
sV5
p18
I2144
sV4
p19
I1452
sV7
p20
I1065
sV6
p21
I1451
sV9
p22
I2125
sV8
p23
I1265
sV;
p24
I5566
sV:
p25
I1987
sV?
p26
I4694
sV[
p27
I2
sV]
p28
I2
sVa
p29
I382803
sV`
p30
I17674
sVc
p31
I147210
sVb
p32
I72804
sVe
p33
I593146
sVd
p34
I188295
sVg
p35
I92584
sVf
p36
I110672
sVi
p37
I345755
sVh
p38
I257234
sVk
p39
I31179
sVj
p40
I7756
sVm
p41
I120641
sVl
p42
I196146
sVo
p43
I360287
sVn
p44
I336706
sVq
p45
I5103
sVp
p46
I95932
sVs
p47
I310753
sVr
p48
I291000
sVu
p49
I128799
sVt
p50
I438960
sVw
p51
I89140
sVv
p52
I47261
sVy
p53
I81774
sVx
p54
I9435
sV{
p55
I16
sVz
p56
I4553
sV}
p57
I16
s.