(dp0
S'1'
p1
I1
sS'5'
p2
I1
sS'6'
p3
I1
sS'8'
p4
I1
sS'a'
p5
I8791
sS'c'
p6
I2398
sS'b'
p7
I1476
sS'e'
p8
I13570
sS'd'
p9
I4929
sS'g'
p10
I2531
sS'f'
p11
I2000
sS'i'
p12
I7510
sS'h'
p13
I7372
sS'k'
p14
I1158
sS'j'
p15
I146
sS'm'
p16
I2104
sS'l'
p17
I4713
sS'o'
p18
I8145
sS'n'
p19
I7012
sS'q'
p20
I209
sS'p'
p21
I1524
sS's'
p22
I6500
sS'r'
p23
I5437
sS'u'
p24
I3465
sS't'
p25
I10685
sS'w'
p26
I2675
sS'v'
p27
I846
sS'y'
p28
I2263
sS'x'
p29
I148
sS'z'
p30
I78
s.