(dp0
S'.8'
p1
F0.4393939393939394
sS'.o'
p2
F0.9981226533166458
sS'u,'
p3
F1.0
sS'&p'
p4
F1.0
sS'&r'
p5
F1.0
sS'&s'
p6
F1.0
sS'&t'
p7
F1.0
sS'&u'
p8
F1.0
sS'&w'
p9
F1.0
sS'&y'
p10
F1.0
sS'&a'
p11
F1.0
sS'&b'
p12
F1.0
sS'&c'
p13
F1.0
sS'&d'
p14
F1.0
sS'&e'
p15
F1.0
sS'&g'
p16
F1.0
sS'&h'
p17
F1.0
sS'&i'
p18
F1.0
sS'&j'
p19
F1.0
sS'&l'
p20
F1.0
sS'&m'
p21
F1.0
sS'&n'
p22
F1.0
sS'&o'
p23
F1.0
sS'&0'
p24
F0.0
sS'&2'
p25
F1.0
sS'&8'
p26
F1.0
sS'-f'
p27
F0.1721311475409836
sS'-a'
p28
F0.6241197183098591
sS'&-'
p29
F0.0
sS'-c'
p30
F0.09693877551020408
sS'ty'
p31
F0.0995747696669029
sS'-m'
p32
F0.18789144050104384
sS'tw'
p33
F0.6758118701007839
sS'tt'
p34
F0.6571282575370465
sS'9i'
p35
F1.0
sS'9h'
p36
F1.0
sS'9j'
p37
F1.0
sS'9m'
p38
F1.0
sS'9l'
p39
F1.0
sS'9o'
p40
F1.0
sS'9n'
p41
F0.8
sS'9a'
p42
F0.9615384615384616
sS'tr'
p43
F0.10472993591699725
sS'9c'
p44
F1.0
sS'9b'
p45
F0.9166666666666666
sS'9e'
p46
F0.7142857142857143
sS'9d'
p47
F1.0
sS'9g'
p48
F1.0
sS'9f'
p49
F1.0
sS'9y'
p50
F1.0
sS'tp'
p51
F0.9613869188337274
sS'9p'
p52
F1.0
sS'9s'
p53
F1.0
sS'9r'
p54
F1.0
sS'9u'
p55
F1.0
sS'9t'
p56
F0.4666666666666667
sS'9w'
p57
F1.0
sS'9v'
p58
F1.0
sS'm$'
p59
F1.0
sS"m'"
p60
F0.6890080428954424
sS'm&'
p61
F1.0
sS'm!'
p62
F1.0
sS'to'
p63
F0.16433957279027703
sS'm-'
p64
F0.4786729857819905
sS'm,'
p65
F1.0
sS'm/'
p66
F1.0
sS'm.'
p67
F0.8614025400331309
sS'm)'
p68
F1.0
sS'm('
p69
F1.0
sS'm*'
p70
F0.0
sS'm5'
p71
F1.0
sS'm4'
p72
F1.0
sS'm7'
p73
F1.0
sS'm6'
p74
F1.0
sS'm1'
p75
F1.0
sS'm0'
p76
F1.0
sS'm3'
p77
F1.0
sS'm2'
p78
F1.0
sS'tj'
p79
F0.9969788519637462
sS'm?'
p80
F1.0
sS'm9'
p81
F1.0
sS'm8'
p82
F1.0
sS'm;'
p83
F1.0
sS'tk'
p84
F0.9704142011834319
sS'9)'
p85
F0.9714285714285714
sS'9('
p86
F1.0
sS'9*'
p87
F0.0
sS'9-'
p88
F0.275
sS'9,'
p89
F0.8492063492063492
sS'9/'
p90
F0.0
sS'9.'
p91
F0.8210526315789474
sS'ti'
p92
F0.15204975747144422
sS'9%'
p93
F0.0
sS"9'"
p94
F0.6666666666666666
sS'99'
p95
F0.0
sS'98'
p96
F0.0
sS'9;'
p97
F1.0
sS'9:'
p98
F0.4444444444444444
sS'91'
p99
F0.0
sS'90'
p100
F0.0
sS'93'
p101
F0.0
sS'92'
p102
F0.0
sS'95'
p103
F0.0
sS'94'
p104
F0.0
sS'97'
p105
F0.0
sS'96'
p106
F0.0
sS'me'
p107
F0.007172743574417215
sS'md'
p108
F0.9471830985915493
sS'mg'
p109
F0.8394495412844036
sS'mf'
p110
F0.7648854961832061
sS'ma'
p111
F0.07956201156783964
sS'm`'
p112
F1.0
sS'mc'
p113
F0.7140625
sS'mb'
p114
F0.12487487487487488
sS'mm'
p115
F0.09076348104644955
sS'ml'
p116
F0.5844748858447488
sS'mo'
p117
F0.08566186847304544
sS'mn'
p118
F0.40166666666666667
sS'mi'
p119
F0.08017234746479956
sS'mh'
p120
F0.9755395683453237
sS'mk'
p121
F0.7857142857142857
sS'mj'
p122
F1.0
sS'mu'
p123
F0.02799505969534788
sS'mt'
p124
F0.9855607790463399
sS'mw'
p125
F0.9701149425287356
sS'mv'
p126
F0.9058823529411765
sS'mq'
p127
F1.0
sS'mp'
p128
F0.0392638036809816
sS'ms'
p129
F0.1627176015473888
sS'mr'
p130
F0.15122534369396293
sS'ta'
p131
F0.3047574016148978
sS'my'
p132
F0.025449758666081616
sS'mx'
p133
F1.0
sS'mz'
p134
F1.0
sS"u'"
p135
F0.3041825095057034
sS'.;'
p136
F1.0
sS't?'
p137
F1.0
sS't:'
p138
F1.0
sS't6'
p139
F1.0
sS't7'
p140
F1.0
sS't5'
p141
F1.0
sS't2'
p142
F1.0
sS't3'
p143
F1.0
sS'rt'
p144
F0.3836513813728283
sS'ru'
p145
F0.08904634239754883
sS'rv'
p146
F0.1404109589041096
sS'rw'
p147
F0.8617394074546034
sS'rp'
p148
F0.5856046573167505
sS'rq'
p149
F0.6962962962962963
sS'rr'
p150
F0.2395985401459854
sS't/'
p151
F0.16666666666666666
sS'rx'
p152
F0.15
sS'ry'
p153
F0.0427519507638202
sS'rz'
p154
F0.22727272727272727
sS'+s'
p155
F1.0
sS're'
p156
F0.023478941418591845
sS'rf'
p157
F0.6435272045028143
sS'rg'
p158
F0.1921540991308433
sS'r`'
p159
F1.0
sS'ra'
p160
F0.19640780020526857
sS'rb'
p161
F0.645555955379633
sS'rc'
p162
F0.4157559198542805
sS'rl'
p163
F0.2545490901819636
sS'rm'
p164
F0.2623612512613522
sS'rn'
p165
F0.11838539438025959
sS'ro'
p166
F0.1215016843741902
sS'rh'
p167
F0.7898376428141912
sS'ri'
p168
F0.09626379948937394
sS'rj'
p169
F0.9793103448275862
sS'rk'
p170
F0.06466876971608833
sS'-3'
p171
F0.21739130434782608
sS'.4'
p172
F0.6987951807228916
sS't)'
p173
F0.9914529914529915
sS't$'
p174
F1.0
sS'r4'
p175
F1.0
sS'r5'
p176
F1.0
sS'r6'
p177
F1.0
sS'r7'
p178
F1.0
sS'r0'
p179
F1.0
sS'r1'
p180
F1.0
sS'r2'
p181
F1.0
sS'r3'
p182
F1.0
sS'r?'
p183
F1.0
sS'r8'
p184
F1.0
sS'r9'
p185
F1.0
sS'r:'
p186
F1.0
sS'r;'
p187
F1.0
sS'r$'
p188
F1.0
sS'r&'
p189
F1.0
sS"r'"
p190
F0.4339471577261809
sS'r!'
p191
F1.0
sS'r,'
p192
F1.0
sS'r-'
p193
F0.21889400921658986
sS'r.'
p194
F0.6966043307086615
sS'r/'
p195
F0.2857142857142857
sS'r('
p196
F1.0
sS'r)'
p197
F1.0
sS'r*'
p198
F1.0
sS'd.'
p199
F0.9686468646864687
sS'd/'
p200
F0.045454545454545456
sS'd,'
p201
F1.0
sS'd-'
p202
F0.3041301627033792
sS'd*'
p203
F1.0
sS'd('
p204
F1.0
sS'd)'
p205
F1.0
sS'd&'
p206
F1.0
sS"d'"
p207
F0.6374745417515275
sS'd$'
p208
F1.0
sS'd!'
p209
F1.0
sS'd?'
p210
F1.0
sS'd:'
p211
F1.0
sS'd;'
p212
F1.0
sS'd8'
p213
F0.9565217391304348
sS'd9'
p214
F1.0
sS'd6'
p215
F1.0
sS'd7'
p216
F1.0
sS'd4'
p217
F1.0
sS'd5'
p218
F1.0
sS'd2'
p219
F1.0
sS'd3'
p220
F1.0
sS'd0'
p221
F0.8181818181818182
sS'd1'
p222
F1.0
sS'dn'
p223
F0.7112790070156503
sS'do'
p224
F0.42478706510755015
sS'dl'
p225
F0.559648158328752
sS'dm'
p226
F0.8397221507589401
sS'dj'
p227
F0.6783625730994152
sS'dk'
p228
F0.9565217391304348
sS'dh'
p229
F0.972713231508495
sS'di'
p230
F0.2912522747471328
sS'df'
p231
F0.982202183198861
sS'dg'
p232
F0.5608342989571263
sS'dd'
p233
F0.5717895704112107
sS'de'
p234
F0.06902941077384361
sS'db'
p235
F0.983957219251337
sS'dc'
p236
F0.9721432632177374
sS'd`'
p237
F1.0
sS'da'
p238
F0.6196252778659892
sS'dz'
p239
F0.875
sS'dx'
p240
F1.0
sS'dy'
p241
F0.20054945054945056
sS'dv'
p242
F0.44815148782687103
sS'dw'
p243
F0.937015503875969
sS'dt'
p244
F0.995149319151423
sS'du'
p245
F0.2352744310575636
sS'dr'
p246
F0.3456317438217891
sS'ds'
p247
F0.5750984436527283
sS'dp'
p248
F0.991880480675544
sS'dq'
p249
F0.71900826446281
sS'd['
p250
F1.0
sS"w'"
p251
F0.7979274611398963
sS'w$'
p252
F1.0
sS'w!'
p253
F1.0
sS'w.'
p254
F0.8235294117647058
sS'w-'
p255
F0.2254335260115607
sS'w,'
p256
F1.0
sS'w)'
p257
F1.0
sS'w('
p258
F1.0
sS'w7'
p259
F1.0
sS'w6'
p260
F1.0
sS'w4'
p261
F1.0
sS'w3'
p262
F1.0
sS'w2'
p263
F1.0
sS'w1'
p264
F1.0
sS'w?'
p265
F1.0
sS'w;'
p266
F1.0
sS'w:'
p267
F1.0
sS'w9'
p268
F1.0
sS'02'
p269
F0.0
sS'03'
p270
F0.0
sS'00'
p271
F0.0
sS'01'
p272
F0.0
sS'06'
p273
F0.0
sS'07'
p274
F0.0
sS'04'
p275
F0.0
sS'05'
p276
F0.0
sS'0:'
p277
F0.14285714285714285
sS'0;'
p278
F1.0
sS'08'
p279
F0.0
sS'09'
p280
F0.0
sS'!!'
p281
F1.0
sS'0&'
p282
F1.0
sS"0'"
p283
F0.18309859154929578
sS'0%'
p284
F0.0
sS'0*'
p285
F0.5
sS'0('
p286
F1.0
sS'0)'
p287
F1.0
sS'0.'
p288
F0.6452830188679245
sS'0/'
p289
F0.0
sS'0,'
p290
F0.47368421052631576
sS'0-'
p291
F0.13917525773195877
sS'wg'
p292
F0.970873786407767
sS'wf'
p293
F0.8362989323843416
sS'we'
p294
F0.015084417381677276
sS'wd'
p295
F0.5608108108108109
sS'wc'
p296
F0.9348958333333334
sS'wb'
p297
F0.7982708933717579
sS'wa'
p298
F0.03711466693931803
sS'w`'
p299
F1.0
sS'wo'
p300
F0.05401312468450278
sS'wn'
p301
F0.03181941800380745
sS'wm'
p302
F0.8931451612903226
sS'wl'
p303
F0.24289772727272727
sS'wk'
p304
F0.2682926829268293
sS'wj'
p305
F1.0
sS'wi'
p306
F0.03232453316162267
sS'wh'
p307
F0.032379959606489025
sS'ww'
p308
F0.9899598393574297
sS'wv'
p309
F1.0
sS'wu'
p310
F0.5542857142857143
sS'wt'
p311
F0.8462633451957295
sS'ws'
p312
F0.2630241423125794
sS'wr'
p313
F0.11821974965229486
sS'wq'
p314
F1.0
sS'wp'
p315
F0.8282208588957055
sS'wz'
p316
F0.8
sS'wy'
p317
F0.7915194346289752
sS'0r'
p318
F1.0
sS'0s'
p319
F0.7802197802197802
sS'0p'
p320
F1.0
sS'0q'
p321
F1.0
sS'0v'
p322
F1.0
sS'0w'
p323
F1.0
sS'0t'
p324
F0.8287292817679558
sS'0u'
p325
F1.0
sS'0y'
p326
F0.9857142857142858
sS'0b'
p327
F1.0
sS'0c'
p328
F0.8985507246376812
sS'0`'
p329
F1.0
sS'0a'
p330
F0.9796954314720813
sS'0f'
p331
F0.9885057471264368
sS'0g'
p332
F1.0
sS'0d'
p333
F1.0
sS'0e'
p334
F1.0
sS'0j'
p335
F1.0
sS'0k'
p336
F1.0
sS'0h'
p337
F1.0
sS'0i'
p338
F1.0
sS'0n'
p339
F1.0
sS'0o'
p340
F1.0
sS'0l'
p341
F1.0
sS'0m'
p342
F1.0
sS'iy'
p343
F0.38461538461538464
sS'ix'
p344
F0.0
sS'iz'
p345
F0.000847816871555744
sS'iq'
p346
F0.011160714285714286
sS'ip'
p347
F0.028098195800059154
sS'is'
p348
F0.014367816091954023
sS'ir'
p349
F0.014058881905391995
sS'iu'
p350
F0.09913793103448276
sS'it'
p351
F0.009242716596393434
sS'iw'
p352
F0.9739819004524887
sS'iv'
p353
F0.0017896620696915464
sS'ii'
p354
F0.5350877192982456
sS'ih'
p355
F0.9469153515064562
sS'ik'
p356
F0.07844756399669695
sS'ij'
p357
F0.4810126582278481
sS'im'
p358
F0.016194648724769205
sS'il'
p359
F0.009721583064887252
sS'io'
p360
F0.0029774564015312634
sS'in'
p361
F0.000848299494368854
sS'ia'
p362
F0.05066055246205918
sS'i`'
p363
F1.0
sS'ic'
p364
F0.02072854129482395
sS'ib'
p365
F0.049611476389719064
sS'ie'
p366
F0.00449842555105713
sS'id'
p367
F0.0353915090757196
sS'ig'
p368
F0.016833706334533426
sS'if'
p369
F0.02594434735851593
sS't.'
p370
F0.931057268722467
sS'i;'
p371
F1.0
sS'i:'
p372
F1.0
sS'i?'
p373
F1.0
sS'i)'
p374
F1.0
sS'i('
p375
F1.0
sS'i-'
p376
F0.03435114503816794
sS'i,'
p377
F1.0
sS'i.'
p378
F0.5287356321839081
sS"i'"
p379
F0.04522613065326633
sS't,'
p380
F1.0
sS't-'
p381
F0.29430379746835444
sS'5y'
p382
F1.0
sS'5u'
p383
F1.0
sS'5t'
p384
F0.6440677966101694
sS'5w'
p385
F1.0
sS'5v'
p386
F1.0
sS'5p'
p387
F1.0
sS'5s'
p388
F1.0
sS'5r'
p389
F1.0
sS'5m'
p390
F1.0
sS'5l'
p391
F1.0
sS'5o'
p392
F0.9545454545454546
sS'5n'
p393
F1.0
sS'5i'
p394
F1.0
sS'5h'
p395
F1.0
sS'5k'
p396
F1.0
sS'5j'
p397
F1.0
sS'5e'
p398
F1.0
sS'5d'
p399
F1.0
sS'5g'
p400
F1.0
sS'5f'
p401
F1.0
sS'5a'
p402
F1.0
sS'5`'
p403
F1.0
sS'5c'
p404
F1.0
sS'5b'
p405
F1.0
sS'59'
p406
F0.0
sS'58'
p407
F0.0
sS'5;'
p408
F1.0
sS'5:'
p409
F0.6666666666666666
sS'55'
p410
F0.0
sS'54'
p411
F0.0
sS'57'
p412
F0.0
sS'56'
p413
F0.0
sS'51'
p414
F0.0
sS'50'
p415
F0.0
sS'53'
p416
F0.0
sS'52'
p417
F0.0
sS'5-'
p418
F0.12745098039215685
sS'5,'
p419
F0.68
sS'5/'
p420
F0.0
sS'5.'
p421
F0.7651515151515151
sS'5)'
p422
F1.0
sS'5('
p423
F1.0
sS'5*'
p424
F0.0
sS'5%'
p425
F0.0
sS"5'"
p426
F0.75
sS'5!'
p427
F1.0
sS'-1'
p428
F0.2254335260115607
sS'[c'
p429
F1.0
sS'[h'
p430
F1.0
sS't!'
p431
F1.0
sS'm:'
p432
F1.0
sS"'7"
p433
F0.0
sS"'6"
p434
F0.0
sS"'5"
p435
F0.11764705882352941
sS"'4"
p436
F0.0
sS"'3"
p437
F0.5555555555555556
sS"'2"
p438
F0.0
sS"'1"
p439
F0.5
sS"'?"
p440
F0.998914223669924
sS"';"
p441
F1.0
sS"':"
p442
F1.0
sS"'9"
p443
F0.0
sS"'8"
p444
F0.0
sS"''"
p445
F0.014037433155080214
sS"'!"
p446
F1.0
sS"'."
p447
F0.9994017349685911
sS"'-"
p448
F0.9836956521739131
sS"',"
p449
F1.0
sS"')"
p450
F1.0
sS"'("
p451
F1.0
sS'nh'
p452
F0.9122886133032695
sS'ni'
p453
F0.2847206641238501
sS'nj'
p454
F0.5116883116883116
sS'nk'
p455
F0.09667194928684628
sS'nl'
p456
F0.3298662704309064
sS'nm'
p457
F0.7447963800904978
sS'nn'
p458
F0.2036249720295368
sS'no'
p459
F0.27501385513919085
sS'n`'
p460
F1.0
sS'na'
p461
F0.4692076605332332
sS'nb'
p462
F0.9379051518253156
sS'nc'
p463
F0.17579132473622508
sS'nd'
p464
F0.03431362893218035
sS'ne'
p465
F0.07903402854006586
sS'nf'
p466
F0.5736602299848124
sS'ng'
p467
F0.02404262913670899
sS'nx'
p468
F0.019801980198019802
sS'ny'
p469
F0.11036225779275484
sS'nz'
p470
F0.1450381679389313
sS'np'
p471
F0.9154055102832751
sS'nq'
p472
F0.3345070422535211
sS'nr'
p473
F0.8122724908996359
sS'ns'
p474
F0.19485451179569943
sS'nt'
p475
F0.3296788169916172
sS'nu'
p476
F0.22998903508771928
sS'nv'
p477
F0.1925
sS'nw'
p478
F0.948711943793911
sS"'w"
p479
F0.9957983193277311
sS"'v"
p480
F0.04669260700389105
sS"'u"
p481
F0.6896551724137931
sS"'t"
p482
F0.11176470588235295
sS"'s"
p483
F0.028820816864295124
sS"'r"
p484
F0.17548746518105848
sS"'q"
p485
F1.0
sS"'p"
p486
F0.9747899159663865
sS"'z"
p487
F1.0
sS"'y"
p488
F0.7272727272727273
sS"'x"
p489
F1.0
sS"'g"
p490
F0.9512195121951219
sS"'f"
p491
F0.9807692307692307
sS"'e"
p492
F0.5
sS"'d"
p493
F0.14653465346534653
sS"'c"
p494
F0.7074468085106383
sS"'b"
p495
F0.7132867132867133
sS"'a"
p496
F0.9111111111111111
sS"'`"
p497
F1.0
sS"'o"
p498
F0.9795918367346939
sS"'n"
p499
F0.6610169491525424
sS"'m"
p500
F0.2819843342036554
sS"'l"
p501
F0.10337972166998012
sS"'k"
p502
F0.5833333333333334
sS"'j"
p503
F0.8888888888888888
sS"'i"
p504
F0.94140625
sS"'h"
p505
F0.9603960396039604
sS'n('
p506
F1.0
sS'n)'
p507
F1.0
sS'n*'
p508
F1.0
sS'n,'
p509
F1.0
sS'n-'
p510
F0.3018660812294182
sS'n.'
p511
F0.943640897755611
sS'n/'
p512
F0.2
sS'n!'
p513
F1.0
sS'n$'
p514
F1.0
sS'n&'
p515
F1.0
sS"n'"
p516
F0.18817883303864613
sS'n8'
p517
F1.0
sS'n9'
p518
F1.0
sS'n:'
p519
F1.0
sS'n;'
p520
F1.0
sS'n?'
p521
F1.0
sS'n0'
p522
F1.0
sS'n1'
p523
F1.0
sS'n2'
p524
F1.0
sS'n3'
p525
F1.0
sS'n4'
p526
F1.0
sS'n5'
p527
F1.0
sS'n6'
p528
F1.0
sS'n7'
p529
F1.0
sS':-'
p530
F1.0
sS':('
p531
F1.0
sS':$'
p532
F1.0
sS":'"
p533
F1.0
sS':8'
p534
F1.0
sS':9'
p535
F1.0
sS'::'
p536
F1.0
sS':4'
p537
F0.23529411764705882
sS':5'
p538
F0.5454545454545454
sS':6'
p539
F0.6666666666666666
sS':7'
p540
F1.0
sS':0'
p541
F0.0
sS':1'
p542
F0.921875
sS':2'
p543
F0.3548387096774194
sS':3'
p544
F0.05263157894736842
sS':l'
p545
F1.0
sS':m'
p546
F1.0
sS':n'
p547
F1.0
sS':o'
p548
F1.0
sS':h'
p549
F1.0
sS':i'
p550
F1.0
sS':j'
p551
F1.0
sS':k'
p552
F1.0
sS':d'
p553
F1.0
sS':e'
p554
F1.0
sS':f'
p555
F1.0
sS':g'
p556
F1.0
sS':`'
p557
F1.0
sS':a'
p558
F1.0
sS':b'
p559
F1.0
sS':c'
p560
F1.0
sS':y'
p561
F1.0
sS':z'
p562
F1.0
sS':t'
p563
F1.0
sS':u'
p564
F1.0
sS':v'
p565
F1.0
sS':w'
p566
F1.0
sS':p'
p567
F1.0
sS':q'
p568
F1.0
sS':r'
p569
F1.0
sS':s'
p570
F1.0
sS'.f'
p571
F0.994726433750824
sS'rd'
p572
F0.18033727199724675
sS'.g'
p573
F0.9368600682593856
sS"`'"
p574
F1.0
sS'`*'
p575
F1.0
sS'`('
p576
F1.0
sS'`.'
p577
F1.0
sS'`-'
p578
F1.0
sS'`3'
p579
F1.0
sS'`1'
p580
F1.0
sS'`7'
p581
F1.0
sS'`:'
p582
F1.0
sS'`?'
p583
F1.0
sS'`b'
p584
F1.0
sS'`c'
p585
F1.0
sS'``'
p586
F0.0
sS'`a'
p587
F1.0
sS'`f'
p588
F1.0
sS'`g'
p589
F1.0
sS'`d'
p590
F1.0
sS'`e'
p591
F1.0
sS'`j'
p592
F1.0
sS'`k'
p593
F1.0
sS'`h'
p594
F1.0
sS'`i'
p595
F1.0
sS'`n'
p596
F1.0
sS'`o'
p597
F1.0
sS'`l'
p598
F1.0
sS'`m'
p599
F1.0
sS'`r'
p600
F1.0
sS'`s'
p601
F1.0
sS'`p'
p602
F1.0
sS'`q'
p603
F1.0
sS'`v'
p604
F1.0
sS'`w'
p605
F1.0
sS'`t'
p606
F1.0
sS'`u'
p607
F1.0
sS'`z'
p608
F1.0
sS'`x'
p609
F1.0
sS'`y'
p610
F1.0
sS'?y'
p611
F1.0
sS'?w'
p612
F1.0
sS'?v'
p613
F1.0
sS'?u'
p614
F1.0
sS'?t'
p615
F1.0
sS'?s'
p616
F1.0
sS'?r'
p617
F1.0
sS'?q'
p618
F1.0
sS'?p'
p619
F1.0
sS'?o'
p620
F1.0
sS'?n'
p621
F1.0
sS'?m'
p622
F1.0
sS'?l'
p623
F1.0
sS'?k'
p624
F1.0
sS'?j'
p625
F1.0
sS'?i'
p626
F1.0
sS'?h'
p627
F1.0
sS'?g'
p628
F1.0
sS'?f'
p629
F1.0
sS'?e'
p630
F1.0
sS'?d'
p631
F1.0
sS'?c'
p632
F1.0
sS'?b'
p633
F1.0
sS'?a'
p634
F1.0
sS'?`'
p635
F1.0
sS's;'
p636
F1.0
sS's:'
p637
F1.0
sS's9'
p638
F1.0
sS's8'
p639
F1.0
sS's?'
p640
F1.0
sS's3'
p641
F1.0
sS's2'
p642
F1.0
sS's1'
p643
F1.0
sS',-'
p644
F1.0
sS's7'
p645
F1.0
sS's6'
p646
F1.0
sS's5'
p647
F1.0
sS's4'
p648
F1.0
sS',6'
p649
F0.6829268292682927
sS',7'
p650
F0.3870967741935484
sS',4'
p651
F0.5633802816901409
sS',5'
p652
F0.3411764705882353
sS',2'
p653
F0.8267716535433071
sS',3'
p654
F0.797752808988764
sS's-'
p655
F0.7308558558558559
sS's,'
p656
F1.0
sS's!'
p657
F1.0
sS"s'"
p658
F0.7196209587513935
sS's&'
p659
F1.0
sS',8'
p660
F0.3870967741935484
sS's$'
p661
F1.0
sS'??'
p662
F1.0
sS'?;'
p663
F1.0
sS's]'
p664
F1.0
sS'?6'
p665
F1.0
sS'?5'
p666
F1.0
sS'?4'
p667
F1.0
sS'?3'
p668
F1.0
sS'?2'
p669
F1.0
sS'?1'
p670
F1.0
sS'?0'
p671
F1.0
sS'?-'
p672
F1.0
sS'?,'
p673
F1.0
sS'?)'
p674
F1.0
sS'?('
p675
F1.0
sS"?'"
p676
F0.9285714285714286
sS',f'
p677
F1.0
sS',g'
p678
F1.0
sS'sy'
p679
F0.2006340579710145
sS',e'
p680
F1.0
sS',b'
p681
F1.0
sS',c'
p682
F1.0
sS',`'
p683
F1.0
sS',a'
p684
F1.0
sS'ss'
p685
F0.3014388837750109
sS'sr'
p686
F0.9459770114942528
sS',l'
p687
F1.0
sS'sp'
p688
F0.34543558631149873
sS'sw'
p689
F0.8560797023166486
sS'sv'
p690
F0.9427374301675978
sS'su'
p691
F0.10308668076109936
sS'st'
p692
F0.23678833729084986
sS'sk'
p693
F0.14636363636363636
sS',w'
p694
F1.0
sS',t'
p695
F0.9998765279664156
sS'sh'
p696
F0.23265560400974117
sS'so'
p697
F0.4485496183206107
sS'sn'
p698
F0.7890978338490835
sS'sm'
p699
F0.5721106354955549
sS'sl'
p700
F0.464636140637776
sS'sc'
p701
F0.4605052125100241
sS'sb'
p702
F0.9159090909090909
sS'sa'
p703
F0.6536681051392703
sS's`'
p704
F1.0
sS'sg'
p705
F0.9625766871165644
sS'sf'
p706
F0.8997739261492087
sS'se'
p707
F0.06818379475286274
sS'sd'
p708
F0.9107965766951942
sS'.r'
p709
F0.9767141009055628
sS'em'
p710
F0.38066759388038945
sS'el'
p711
F0.2000556704310482
sS'eo'
p712
F0.8512258543833581
sS'en'
p713
F0.08014286719684707
sS'ei'
p714
F0.6193782070630848
sS'eh'
p715
F0.90349097896872
sS'ek'
p716
F0.5684113865932048
sS'ej'
p717
F0.8627450980392157
sS'ee'
p718
F0.2592697692016648
sS'ed'
p719
F0.1293944858614215
sS'eg'
p720
F0.47880360894821405
sS'ef'
p721
F0.6166344026548672
sS'ea'
p722
F0.3740686229417717
sS'e`'
p723
F1.0
sS'ec'
p724
F0.4288447653429603
sS'eb'
p725
F0.8990521327014218
sS'ey'
p726
F0.16525589269436125
sS'ex'
p727
F0.0035551763367463025
sS'ez'
p728
F0.17094017094017094
sS'eu'
p729
F0.7754828326180258
sS'et'
p730
F0.5329748171278226
sS'ew'
p731
F0.7081157209083974
sS'ev'
p732
F0.13851172632692646
sS'eq'
p733
F0.23548387096774193
sS'ep'
p734
F0.6098145578402927
sS'es'
p735
F0.2591392421553142
sS'er'
p736
F0.0779638863339304
sS'e-'
p737
F0.27959413754227735
sS'e,'
p738
F0.9998795761078998
sS'e/'
p739
F0.5
sS'e.'
p740
F0.9734005319893602
sS'e)'
p741
F1.0
sS'e('
p742
F1.0
sS'e+'
p743
F1.0
sS'e*'
p744
F1.0
sS'e$'
p745
F1.0
sS"e'"
p746
F0.545578231292517
sS'e&'
p747
F1.0
sS'e!'
p748
F1.0
sS'u?'
p749
F1.0
sS'e?'
p750
F1.0
sS'e9'
p751
F1.0
sS'e8'
p752
F1.0
sS'e;'
p753
F1.0
sS'e:'
p754
F1.0
sS'e5'
p755
F1.0
sS'e4'
p756
F1.0
sS'e7'
p757
F1.0
sS'e6'
p758
F1.0
sS'e1'
p759
F1.0
sS'e0'
p760
F1.0
sS'e3'
p761
F1.0
sS'e2'
p762
F1.0
sS'..'
p763
F1.0
sS'u:'
p764
F1.0
sS'.q'
p765
F0.8888888888888888
sS'xj'
p766
F1.0
sS'xk'
p767
F1.0
sS'xh'
p768
F0.20121951219512196
sS'xi'
p769
F0.07015985790408526
sS'xn'
p770
F0.8
sS'xo'
p771
F0.45454545454545453
sS'xl'
p772
F0.40540540540540543
sS'xm'
p773
F0.9824561403508771
sS'xb'
p774
F0.9607843137254902
sS'xc'
p775
F0.08611955420466058
sS'x`'
p776
F1.0
sS'xa'
p777
F0.12063808574277168
sS'xf'
p778
F0.6567164179104478
sS'xg'
p779
F0.8333333333333334
sS'xd'
p780
F1.0
sS'xe'
p781
F0.0256797583081571
sS'xz'
p782
F1.0
sS'xx'
p783
F0.0
sS'xy'
p784
F0.19642857142857142
sS'xr'
p785
F0.7916666666666666
sS'xs'
p786
F0.9464285714285714
sS'xp'
p787
F0.020177562550443905
sS'xq'
p788
F0.0
sS'xv'
p789
F0.8888888888888888
sS'xw'
p790
F0.8818897637795275
sS'xt'
p791
F0.047322540473225407
sS'xu'
p792
F0.07194244604316546
sS'1p'
p793
F1.0
sS'1s'
p794
F0.8043478260869565
sS'1r'
p795
F1.0
sS'1u'
p796
F1.0
sS'1t'
p797
F0.9659090909090909
sS'1w'
p798
F1.0
sS'1v'
p799
F1.0
sS'1y'
p800
F1.0
sS'1a'
p801
F0.9868421052631579
sS'1`'
p802
F1.0
sS'1c'
p803
F1.0
sS'1b'
p804
F0.9615384615384616
sS'1e'
p805
F1.0
sS'1d'
p806
F1.0
sS'1g'
p807
F1.0
sS'1f'
p808
F1.0
sS'1i'
p809
F1.0
sS'1h'
p810
F1.0
sS'1k'
p811
F1.0
sS'1j'
p812
F1.0
sS'1m'
p813
F0.9705882352941176
sS'1l'
p814
F1.0
sS'1o'
p815
F1.0
sS'1n'
p816
F1.0
sS'x('
p817
F1.0
sS'x)'
p818
F1.0
sS'x.'
p819
F0.9146341463414634
sS'x,'
p820
F1.0
sS'x-'
p821
F0.06140350877192982
sS'x&'
p822
F1.0
sS"x'"
p823
F0.3877551020408163
sS'x:'
p824
F1.0
sS'x;'
p825
F1.0
sS'x?'
p826
F1.0
sS'x3'
p827
F1.0
sS'x1'
p828
F1.0
sS'x7'
p829
F1.0
sS'x5'
p830
F1.0
sS'11'
p831
F0.0
sS'10'
p832
F0.0
sS'13'
p833
F0.0
sS'12'
p834
F0.0
sS'15'
p835
F0.0
sS'14'
p836
F0.0
sS'17'
p837
F0.0
sS'16'
p838
F0.0
sS'19'
p839
F0.0
sS'18'
p840
F0.0024271844660194173
sS'1;'
p841
F1.0
sS'1:'
p842
F0.6341463414634146
sS'1?'
p843
F1.0
sS'1%'
p844
F0.0
sS"1'"
p845
F0.5454545454545454
sS'1)'
p846
F0.9793103448275862
sS'1('
p847
F0.6842105263157895
sS'1*'
p848
F0.0
sS'1-'
p849
F0.22388059701492538
sS'1,'
p850
F0.7163323782234957
sS'1/'
p851
F0.0
sS'1.'
p852
F0.7083333333333334
sS'uy'
p853
F0.022026431718061675
sS'.m'
p854
F0.9292355371900827
sS'uz'
p855
F0.0
sS'.`'
p856
F1.0
sS'.a'
p857
F0.9906819144430327
sS'uw'
p858
F0.9947368421052631
sS'uv'
p859
F0.08653846153846154
sS'j4'
p860
F1.0
sS'.d'
p861
F0.967741935483871
sS'j1'
p862
F1.0
sS'.e'
p863
F0.9458563535911603
sS'j,'
p864
F1.0
sS'j.'
p865
F0.4732510288065844
sS'j)'
p866
F0.6666666666666666
sS"j'"
p867
F0.6666666666666666
sS'um'
p868
F0.044349070100143065
sS'.y'
p869
F0.9729241877256317
sS'.z'
p870
F1.0
sS'jy'
p871
F0.0
sS'ju'
p872
F0.0
sS'jw'
p873
F1.0
sS'jr'
p874
F0.0
sS'js'
p875
F0.0
sS'.p'
p876
F0.981300089047195
sS'jn'
p877
F0.0
sS'jo'
p878
F0.0
sS'ji'
p879
F0.0078125
sS'jk'
p880
F0.0
sS'jd'
p881
F0.08333333333333333
sS'je'
p882
F0.0
sS'jf'
p883
F1.0
sS'jg'
p884
F1.0
sS'ja'
p885
F0.0010330578512396695
sS'jb'
p886
F0.0
sS'jc'
p887
F1.0
sS'uf'
p888
F0.12484237074401008
sS'.t'
p889
F0.9995596265633258
sS'.v'
p890
F1.0
sS'ub'
p891
F0.02485207100591716
sS'6%'
p892
F0.0
sS"6'"
p893
F0.3
sS'6('
p894
F0.6666666666666666
sS'6)'
p895
F0.9142857142857143
sS'6*'
p896
F1.0
sS'6,'
p897
F0.8073394495412844
sS'6-'
p898
F0.03508771929824561
sS'6.'
p899
F0.7553191489361702
sS'6/'
p900
F0.0
sS'60'
p901
F0.0
sS'61'
p902
F0.005405405405405406
sS'62'
p903
F0.0
sS'63'
p904
F0.0
sS'64'
p905
F0.0
sS'65'
p906
F0.0
sS'66'
p907
F0.0
sS'67'
p908
F0.0
sS'68'
p909
F0.0
sS'69'
p910
F0.0
sS'6:'
p911
F0.3333333333333333
sS'6;'
p912
F1.0
sS'6a'
p913
F0.9565217391304348
sS'6b'
p914
F1.0
sS'6c'
p915
F1.0
sS'6d'
p916
F1.0
sS'6e'
p917
F1.0
sS'6f'
p918
F1.0
sS'6g'
p919
F1.0
sS'6h'
p920
F1.0
sS'6i'
p921
F1.0
sS'6j'
p922
F1.0
sS'6l'
p923
F1.0
sS'6m'
p924
F1.0
sS'6n'
p925
F1.0
sS'6o'
p926
F1.0
sS'6p'
p927
F1.0
sS'}d'
p928
F1.0
sS'6r'
p929
F1.0
sS'6s'
p930
F1.0
sS'6t'
p931
F0.55
sS'6u'
p932
F1.0
sS'6v'
p933
F1.0
sS'6w'
p934
F1.0
sS'}m'
p935
F1.0
sS'6y'
p936
F1.0
sS'}o'
p937
F1.0
sS'}i'
p938
F1.0
sS'(z'
p939
F1.0
sS'(y'
p940
F1.0
sS'(r'
p941
F1.0
sS'(s'
p942
F1.0
sS'(p'
p943
F1.0
sS'(q'
p944
F0.8
sS'(v'
p945
F1.0
sS'(w'
p946
F1.0
sS'(t'
p947
F0.9949494949494949
sS'(u'
p948
F1.0
sS'(j'
p949
F0.9615384615384616
sS'(k'
p950
F1.0
sS'(h'
p951
F0.9861111111111112
sS'(i'
p952
F1.0
sS'(n'
p953
F1.0
sS'(o'
p954
F1.0
sS'(l'
p955
F1.0
sS'(m'
p956
F1.0
sS'(b'
p957
F1.0
sS'(c'
p958
F0.918918918918919
sS'(`'
p959
F1.0
sS'(a'
p960
F0.9779179810725552
sS'(f'
p961
F1.0
sS'(g'
p962
F1.0
sS'(d'
p963
F1.0
sS'(e'
p964
F1.0
sS'(8'
p965
F1.0
sS'(9'
p966
F0.75
sS'(2'
p967
F1.0
sS'(3'
p968
F1.0
sS'(1'
p969
F0.9753694581280788
sS'(6'
p970
F0.8666666666666667
sS'(7'
p971
F1.0
sS'(4'
p972
F0.9523809523809523
sS'(5'
p973
F1.0
sS'(('
p974
F1.0
sS'()'
p975
F1.0
sS'(,'
p976
F1.0
sS"('"
p977
F1.0
sS'($'
p978
F1.0
sS';s'
p979
F1.0
sS';r'
p980
F1.0
sS';p'
p981
F1.0
sS';w'
p982
F1.0
sS';v'
p983
F1.0
sS';u'
p984
F1.0
sS';t'
p985
F1.0
sS';y'
p986
F1.0
sS';c'
p987
F1.0
sS'}-'
p988
F0.0
sS';a'
p989
F1.0
sS';`'
p990
F1.0
sS';g'
p991
F1.0
sS';f'
p992
F1.0
sS';e'
p993
F1.0
sS';d'
p994
F1.0
sS';k'
p995
F1.0
sS';j'
p996
F1.0
sS';i'
p997
F1.0
sS';h'
p998
F1.0
sS';o'
p999
F1.0
sS';n'
p1000
F1.0
sS';m'
p1001
F1.0
sS';l'
p1002
F1.0
sS'o.'
p1003
F0.7771812080536913
sS'o-'
p1004
F0.09807355516637478
sS'o,'
p1005
F1.0
sS'o*'
p1006
F1.0
sS'o)'
p1007
F1.0
sS'o('
p1008
F0.9615384615384616
sS"o'"
p1009
F0.4330543933054393
sS'o&'
p1010
F1.0
sS'o$'
p1011
F1.0
sS'o!'
p1012
F1.0
sS'o?'
p1013
F1.0
sS'o;'
p1014
F1.0
sS'o:'
p1015
F1.0
sS'o9'
p1016
F1.0
sS'o8'
p1017
F1.0
sS'o7'
p1018
F1.0
sS'o6'
p1019
F1.0
sS'o5'
p1020
F1.0
sS'o4'
p1021
F1.0
sS'o3'
p1022
F1.0
sS'o2'
p1023
F1.0
sS'o1'
p1024
F1.0
sS'o0'
p1025
F1.0
sS';3'
p1026
F1.0
sS';2'
p1027
F1.0
sS';1'
p1028
F1.0
sS';4'
p1029
F1.0
sS';;'
p1030
F0.9996408045977011
sS';8'
p1031
F1.0
sS";'"
p1032
F1.0
sS';$'
p1033
F1.0
sS';*'
p1034
F1.0
sS';('
p1035
F1.0
sS'oo'
p1036
F0.10726072607260725
sS'on'
p1037
F0.009835066101912463
sS'om'
p1038
F0.09727232732072151
sS'ol'
p1039
F0.08314452454514247
sS'ok'
p1040
F0.11319648093841642
sS'oj'
p1041
F0.4613526570048309
sS'oi'
p1042
F0.29411764705882354
sS'oh'
p1043
F0.7326934264107039
sS'og'
p1044
F0.2772825825102385
sS'of'
p1045
F0.031158070209845068
sS'oe'
p1046
F0.39907932011331443
sS'od'
p1047
F0.2040909090909091
sS'oc'
p1048
F0.2679388315252908
sS'ob'
p1049
F0.4529375576745617
sS'oa'
p1050
F0.5358813094662151
sS'o`'
p1051
F1.0
sS'oz'
p1052
F0.05
sS'oy'
p1053
F0.2062992125984252
sS'ox'
p1054
F0.0
sS'ow'
p1055
F0.11565343531583806
sS'ov'
p1056
F0.03185576792734174
sS'ou'
p1057
F0.010595344551933446
sS'ot'
p1058
F0.30365853658536585
sS'os'
p1059
F0.23454296226823462
sS'or'
p1060
F0.03156312625250501
sS'oq'
p1061
F0.6923076923076923
sS'op'
p1062
F0.18007045797684954
sS'aa'
p1063
F0.8901273885350318
sS'a`'
p1064
F1.0
sS'ac'
p1065
F0.1371246206968714
sS'ab'
p1066
F0.15549513750914984
sS'ae'
p1067
F0.10539845758354756
sS'ad'
p1068
F0.07302829279355899
sS'ag'
p1069
F0.13024156791248861
sS'af'
p1070
F0.32798080472499075
sS'ai'
p1071
F0.021027003098716246
sS'ah'
p1072
F0.6730637422892392
sS'ak'
p1073
F0.04859278803869833
sS'aj'
p1074
F0.2526964560862866
sS'am'
p1075
F0.1575958353052532
sS'al'
p1076
F0.04176809737347854
sS'ao'
p1077
F0.6520947176684881
sS'an'
p1078
F0.013394844401278782
sS'aq'
p1079
F0.7037037037037037
sS'ap'
p1080
F0.23372646858698118
sS'as'
p1081
F0.08732225636751914
sS'ar'
p1082
F0.03270495184026009
sS'au'
p1083
F0.03051858650757228
sS'at'
p1084
F0.02841094994001527
sS'aw'
p1085
F0.34537535229310784
sS'av'
p1086
F0.06669031571479248
sS'ay'
p1087
F0.02349295211436569
sS'ax'
p1088
F0.0012391573729863693
sS'az'
p1089
F0.02336448598130841
sS'a!'
p1090
F0.9230769230769231
sS'a$'
p1091
F1.0
sS"a'"
p1092
F0.4222222222222222
sS'a&'
p1093
F1.0
sS'a)'
p1094
F0.9146341463414634
sS'a('
p1095
F1.0
sS'a-'
p1096
F0.2
sS'a,'
p1097
F1.0
sS'a/'
p1098
F0.0
sS'a.'
p1099
F0.660377358490566
sS'a1'
p1100
F0.9855072463768116
sS'a3'
p1101
F1.0
sS'a2'
p1102
F1.0
sS'a5'
p1103
F0.95
sS'a4'
p1104
F0.9444444444444444
sS'a7'
p1105
F1.0
sS'a6'
p1106
F1.0
sS'a9'
p1107
F1.0
sS'a;'
p1108
F1.0
sS'a:'
p1109
F1.0
sS'a?'
p1110
F1.0
sS'rs'
p1111
F0.18104853552084976
sS'}a'
p1112
F1.0
sS't]'
p1113
F1.0
sS'}b'
p1114
F1.0
sS'-e'
p1115
F0.21119592875318066
sS'-d'
p1116
F0.09815950920245399
sS'-g'
p1117
F0.17427385892116182
sS't}'
p1118
F0.0
sS'tz'
p1119
F0.06626506024096386
sS'-`'
p1120
F1.0
sS'tx'
p1121
F1.0
sS'-b'
p1122
F0.2935606060606061
sS'tv'
p1123
F0.8426150121065376
sS'-l'
p1124
F0.10476190476190476
sS'-o'
p1125
F0.2957983193277311
sS'tu'
p1126
F0.10412532637075718
sS'-i'
p1127
F0.4679715302491103
sS'-h'
p1128
F0.35247524752475246
sS'-k'
p1129
F0.17073170731707318
sS'-j'
p1130
F0.24369747899159663
sS'tn'
p1131
F0.8206703910614526
sS'-t'
p1132
F0.46530612244897956
sS'-w'
p1133
F0.4672897196261682
sS'-v'
p1134
F0.10714285714285714
sS'-q'
p1135
F0.25
sS'-p'
p1136
F0.14990512333965844
sS'-s'
p1137
F0.1751684311838306
sS'-r'
p1138
F0.13350125944584382
sS'tf'
p1139
F0.9040342298288508
sS'tg'
p1140
F0.9346866725507502
sS'td'
p1141
F0.9748373101952278
sS'te'
p1142
F0.0384786774207923
sS'-y'
p1143
F0.23039215686274508
sS'tc'
p1144
F0.6575725026852847
sS't`'
p1145
F1.0
sS'-z'
p1146
F0.0
sS'-$'
p1147
F1.0
sS"-'"
p1148
F0.6153846153846154
sS'-&'
p1149
F0.0
sS'-!'
p1150
F1.0
sS't;'
p1151
F1.0
sS't8'
p1152
F1.0
sS't9'
p1153
F1.0
sS'--'
p1154
F0.0002910360884749709
sS'-,'
p1155
F1.0
sS't4'
p1156
F1.0
sS'-.'
p1157
F0.4
sS'-)'
p1158
F1.0
sS'-('
p1159
F1.0
sS't0'
p1160
F1.0
sS't1'
p1161
F1.0
sS'-5'
p1162
F0.15555555555555556
sS'-4'
p1163
F0.3125
sS'-7'
p1164
F0.24
sS'-6'
p1165
F0.041666666666666664
sS't*'
p1166
F1.0
sS'-0'
p1167
F0.14285714285714285
sS't('
p1168
F1.0
sS'-2'
p1169
F0.11666666666666667
sS't&'
p1170
F1.0
sS"t'"
p1171
F0.47365780230807825
sS'-?'
p1172
F1.0
sS'-9'
p1173
F0.5
sS'-8'
p1174
F0.38461538461538464
sS'-;'
p1175
F1.0
sS'-:'
p1176
F0.0
sS'f0'
p1177
F1.0
sS'f1'
p1178
F1.0
sS'f2'
p1179
F1.0
sS'f3'
p1180
F1.0
sS'f4'
p1181
F1.0
sS'f5'
p1182
F1.0
sS'f6'
p1183
F1.0
sS'f7'
p1184
F1.0
sS'f8'
p1185
F1.0
sS'f9'
p1186
F1.0
sS'f:'
p1187
F1.0
sS'f;'
p1188
F1.0
sS'f?'
p1189
F1.0
sS'f!'
p1190
F1.0
sS'f$'
p1191
F1.0
sS'f&'
p1192
F1.0
sS"f'"
p1193
F0.72
sS'f('
p1194
F1.0
sS'f)'
p1195
F1.0
sS'f*'
p1196
F1.0
sS'f,'
p1197
F1.0
sS'f-'
p1198
F0.061946902654867256
sS'f.'
p1199
F0.8456284153005464
sS'fp'
p1200
F0.998719590268886
sS'fq'
p1201
F1.0
sS'fr'
p1202
F0.09893108937912212
sS'fs'
p1203
F0.9478635829086632
sS'ft'
p1204
F0.8120793376615641
sS'fu'
p1205
F0.08554942298043151
sS'fv'
p1206
F1.0
sS'fw'
p1207
F0.9843505477308294
sS'fx'
p1208
F1.0
sS'fy'
p1209
F0.6359039190897599
sS'fz'
p1210
F1.0
sS'f{'
p1211
F0.0
sS'f`'
p1212
F1.0
sS'fa'
p1213
F0.3980160604629192
sS'fb'
p1214
F0.9783950617283951
sS'fc'
p1215
F0.9981455725544738
sS'fd'
p1216
F0.9906832298136646
sS'fe'
p1217
F0.10593484125337208
sS'ff'
p1218
F0.16313392997330822
sS'fg'
p1219
F0.9920212765957447
sS'fh'
p1220
F0.9969217238346526
sS'fi'
p1221
F0.14970693585151418
sS'fj'
p1222
F0.9913793103448276
sS'fk'
p1223
F0.9586776859504132
sS'fl'
p1224
F0.2619837202291227
sS'fm'
p1225
F0.9946107784431137
sS'fn'
p1226
F0.9767441860465116
sS'fo'
p1227
F0.06209828432612986
sS'y)'
p1228
F1.0
sS'y('
p1229
F1.0
sS'y*'
p1230
F1.0
sS'y-'
p1231
F0.26666666666666666
sS'y,'
p1232
F1.0
sS'y/'
p1233
F0.3333333333333333
sS'y.'
p1234
F0.9910414333706606
sS'y!'
p1235
F1.0
sS'y$'
p1236
F1.0
sS"y'"
p1237
F0.4823196605374823
sS'y&'
p1238
F1.0
sS'y9'
p1239
F1.0
sS'y8'
p1240
F1.0
sS'y;'
p1241
F1.0
sS'y:'
p1242
F1.0
sS'y?'
p1243
F1.0
sS'y1'
p1244
F1.0
sS'y0'
p1245
F1.0
sS'y3'
p1246
F1.0
sS'y2'
p1247
F1.0
sS'y5'
p1248
F1.0
sS'y4'
p1249
F1.0
sS'y7'
p1250
F1.0
sS'y6'
p1251
F1.0
sS'24'
p1252
F0.0
sS'25'
p1253
F0.0
sS'26'
p1254
F0.0
sS'27'
p1255
F0.0
sS'20'
p1256
F0.0
sS'21'
p1257
F0.0
sS'22'
p1258
F0.0
sS'23'
p1259
F0.0
sS'28'
p1260
F0.0
sS'29'
p1261
F0.0
sS'2:'
p1262
F0.06086956521739131
sS'2;'
p1263
F1.0
sS'2%'
p1264
F0.0
sS"2'"
p1265
F0.16
sS'2,'
p1266
F0.761437908496732
sS'2-'
p1267
F0.09
sS'2.'
p1268
F0.7445887445887446
sS'2/'
p1269
F0.0
sS'2('
p1270
F1.0
sS'2)'
p1271
F1.0
sS'2*'
p1272
F0.0
sS'yi'
p1273
F0.7084946481439308
sS'yh'
p1274
F0.97883149872989
sS'yk'
p1275
F0.8544776119402985
sS'yj'
p1276
F0.985663082437276
sS'ym'
p1277
F0.6829710144927537
sS'yl'
p1278
F0.6877906976744186
sS'yo'
p1279
F0.40627666635062104
sS'yn'
p1280
F0.6661642803315749
sS'ya'
p1281
F0.8970370370370371
sS'y`'
p1282
F1.0
sS'yc'
p1283
F0.8846945778997941
sS'yb'
p1284
F0.8665939658306071
sS'ye'
p1285
F0.21674352607307557
sS'yd'
p1286
F0.914969450101833
sS'yg'
p1287
F0.91280353200883
sS'yf'
p1288
F0.9820436083796494
sS'yy'
p1289
F0.9893617021276596
sS'yx'
p1290
F1.0
sS'yz'
p1291
F0.08064516129032258
sS'yq'
p1292
F0.9873417721518988
sS'yp'
p1293
F0.7156824403597967
sS'ys'
p1294
F0.50355871886121
sS'yr'
p1295
F0.7731903485254692
sS'yu'
p1296
F0.9052453468697124
sS'yt'
p1297
F0.888904318844605
sS'yw'
p1298
F0.9314253329555114
sS'yv'
p1299
F0.9754385964912281
sS'2t'
p1300
F0.9787234042553191
sS'2u'
p1301
F1.0
sS'2v'
p1302
F1.0
sS'2w'
p1303
F1.0
sS'2p'
p1304
F1.0
sS'2r'
p1305
F1.0
sS'2s'
p1306
F0.9642857142857143
sS'2y'
p1307
F1.0
sS'2d'
p1308
F0.7058823529411765
sS'2e'
p1309
F1.0
sS'2f'
p1310
F1.0
sS'2g'
p1311
F1.0
sS'2`'
p1312
F1.0
sS'2a'
p1313
F0.9565217391304348
sS'2b'
p1314
F1.0
sS'2c'
p1315
F0.9655172413793104
sS'2l'
p1316
F1.0
sS'2m'
p1317
F1.0
sS'2n'
p1318
F0.09090909090909091
sS'2o'
p1319
F1.0
sS'2h'
p1320
F0.9411764705882353
sS'2i'
p1321
F1.0
sS'2j'
p1322
F1.0
sS'2k'
p1323
F1.0
sS'v-'
p1324
F0.2727272727272727
sS'$.'
p1325
F0.0
sS'lk'
p1326
F0.1147811725846408
sS'$8'
p1327
F0.0
sS'$9'
p1328
F0.0
sS'$6'
p1329
F0.0
sS'$7'
p1330
F0.0
sS'$4'
p1331
F0.0
sS'$5'
p1332
F0.0
sS'$2'
p1333
F0.0
sS'$3'
p1334
F0.0
sS'$0'
p1335
F0.0
sS'$1'
p1336
F0.0
sS'7g'
p1337
F1.0
sS'7f'
p1338
F1.0
sS'7e'
p1339
F0.8333333333333334
sS'7d'
p1340
F1.0
sS'7c'
p1341
F1.0
sS'7b'
p1342
F0.9090909090909091
sS'7a'
p1343
F0.975609756097561
sS'7o'
p1344
F1.0
sS'7n'
p1345
F1.0
sS'7m'
p1346
F1.0
sS'7l'
p1347
F1.0
sS'7i'
p1348
F1.0
sS'7h'
p1349
F1.0
sS'7w'
p1350
F1.0
sS'7v'
p1351
F1.0
sS'7u'
p1352
F1.0
sS'7t'
p1353
F0.44680851063829785
sS'7s'
p1354
F1.0
sS'7r'
p1355
F1.0
sS'7p'
p1356
F1.0
sS'}.'
p1357
F1.0
sS'7y'
p1358
F1.0
sS'k!'
p1359
F1.0
sS"k'"
p1360
F0.5912408759124088
sS'k&'
p1361
F1.0
sS'k*'
p1362
F0.0
sS'k)'
p1363
F1.0
sS'k('
p1364
F1.0
sS'k.'
p1365
F0.9527950310559006
sS'k-'
p1366
F0.22413793103448276
sS'k,'
p1367
F1.0
sS'k3'
p1368
F1.0
sS'k2'
p1369
F1.0
sS'k1'
p1370
F1.0
sS'k5'
p1371
F1.0
sS'k4'
p1372
F1.0
sS'k;'
p1373
F1.0
sS'k:'
p1374
F1.0
sS'k?'
p1375
F1.0
sS"7'"
p1376
F0.0
sS'7%'
p1377
F0.0
sS'7/'
p1378
F0.0
sS'7.'
p1379
F0.7555555555555555
sS'7-'
p1380
F0.22580645161290322
sS'7,'
p1381
F0.7313432835820896
sS'7)'
p1382
F1.0
sS'7('
p1383
F1.0
sS'77'
p1384
F0.0
sS'76'
p1385
F0.0
sS'75'
p1386
F0.0
sS'74'
p1387
F0.0
sS'73'
p1388
F0.0
sS'72'
p1389
F0.0
sS'71'
p1390
F0.0
sS'70'
p1391
F0.0
sS'7;'
p1392
F1.0
sS'7:'
p1393
F0.21052631578947367
sS'79'
p1394
F0.0
sS'78'
p1395
F0.0
sS'kc'
p1396
F0.9530685920577617
sS'kb'
p1397
F0.8620689655172413
sS'ka'
p1398
F0.5827850877192983
sS'k`'
p1399
F1.0
sS'kg'
p1400
F0.4899328859060403
sS'kf'
p1401
F0.7494407158836689
sS'ke'
p1402
F0.009852216748768473
sS'kd'
p1403
F0.8452380952380952
sS'kk'
p1404
F0.36764705882352944
sS'kj'
p1405
F0.603448275862069
sS'ki'
p1406
F0.13040712468193386
sS'kh'
p1407
F0.717741935483871
sS'ko'
p1408
F0.7112068965517241
sS'kn'
p1409
F0.02385935537881959
sS'km'
p1410
F0.7418032786885246
sS'kl'
p1411
F0.18573551263001487
sS'ks'
p1412
F0.17885795186408684
sS'kr'
p1413
F0.4669603524229075
sS'kq'
p1414
F0.9090909090909091
sS'kp'
p1415
F0.8663594470046083
sS'kw'
p1416
F0.8304195804195804
sS'kv'
p1417
F0.9310344827586207
sS'ku'
p1418
F0.5727699530516432
sS'kt'
p1419
F0.9532794249775381
sS'kz'
p1420
F1.0
sS'ky'
p1421
F0.22265625
sS'kx'
p1422
F1.0
sS']t'
p1423
F1.0
sS']i'
p1424
F1.0
sS')9'
p1425
F1.0
sS')8'
p1426
F1.0
sS');'
p1427
F1.0
sS'):'
p1428
F1.0
sS')?'
p1429
F1.0
sS')1'
p1430
F1.0
sS')3'
p1431
F1.0
sS')2'
p1432
F1.0
sS')5'
p1433
F1.0
sS')4'
p1434
F1.0
sS')7'
p1435
F1.0
sS')6'
p1436
F1.0
sS'))'
p1437
F1.0
sS')('
p1438
F0.1
sS')-'
p1439
F0.9722222222222222
sS'),'
p1440
F1.0
sS').'
p1441
F1.0
sS")'"
p1442
F1.0
sS'pr'
p1443
F0.00392914653784219
sS'ps'
p1444
F0.09530261969286359
sS'pp'
p1445
F0.022292993630573247
sS'pq'
p1446
F0.75
sS'pv'
p1447
F0.9285714285714286
sS'pw'
p1448
F0.8664688427299704
sS'pt'
p1449
F0.2443140132061629
sS'pu'
p1450
F0.016733067729083666
sS'pz'
p1451
F1.0
sS'py'
p1452
F0.10077519379844961
sS'pb'
p1453
F0.8812785388127854
sS'pc'
p1454
F0.9357142857142857
sS'p`'
p1455
F1.0
sS'pa'
p1456
F0.06296876287810105
sS'pf'
p1457
F0.775
sS'pg'
p1458
F0.7288135593220338
sS'pd'
p1459
F0.8977272727272727
sS'pe'
p1460
F0.003385162659934592
sS'pj'
p1461
F0.5833333333333334
sS'pk'
p1462
F0.25
sS'ph'
p1463
F0.06930091185410335
sS'pi'
p1464
F0.08232094288304624
sS'pn'
p1465
F0.5740740740740741
sS'po'
p1466
F0.050250096190842634
sS'pl'
p1467
F0.007465781833264205
sS'pm'
p1468
F0.1651006711409396
sS')y'
p1469
F1.0
sS')z'
p1470
F1.0
sS')q'
p1471
F1.0
sS')p'
p1472
F1.0
sS')s'
p1473
F1.0
sS')r'
p1474
F1.0
sS')u'
p1475
F1.0
sS')t'
p1476
F0.9953051643192489
sS')w'
p1477
F1.0
sS')v'
p1478
F1.0
sS')i'
p1479
F1.0
sS')h'
p1480
F1.0
sS')k'
p1481
F1.0
sS')j'
p1482
F1.0
sS')m'
p1483
F1.0
sS')l'
p1484
F1.0
sS')o'
p1485
F1.0
sS')n'
p1486
F1.0
sS')a'
p1487
F1.0
sS')`'
p1488
F1.0
sS')c'
p1489
F1.0
sS')b'
p1490
F1.0
sS')e'
p1491
F1.0
sS')d'
p1492
F1.0
sS')g'
p1493
F1.0
sS')f'
p1494
F1.0
sS'p2'
p1495
F1.0
sS'p3'
p1496
F1.0
sS'p1'
p1497
F1.0
sS'p4'
p1498
F1.0
sS'p5'
p1499
F1.0
sS'p:'
p1500
F1.0
sS'p;'
p1501
F1.0
sS'p8'
p1502
F1.0
sS'p?'
p1503
F1.0
sS'p!'
p1504
F1.0
sS'p&'
p1505
F1.0
sS"p'"
p1506
F0.7732558139534884
sS'p$'
p1507
F1.0
sS'p('
p1508
F0.8666666666666667
sS'p)'
p1509
F1.0
sS'p.'
p1510
F0.7160839160839161
sS'p/'
p1511
F1.0
sS'p,'
p1512
F1.0
sS'p-'
p1513
F0.2692307692307692
sS'b&'
p1514
F1.0
sS"b'"
p1515
F0.4878048780487805
sS'b!'
p1516
F1.0
sS'b,'
p1517
F1.0
sS'b-'
p1518
F0.125
sS'b.'
p1519
F0.38697318007662834
sS'b/'
p1520
F0.0
sS'b('
p1521
F1.0
sS'b)'
p1522
F1.0
sS'b4'
p1523
F0.0
sS'b6'
p1524
F0.0
sS'b7'
p1525
F0.0
sS'b1'
p1526
F0.0
sS'b?'
p1527
F1.0
sS'b8'
p1528
F1.0
sS'b:'
p1529
F1.0
sS'b;'
p1530
F1.0
sS'bd'
p1531
F0.2807017543859649
sS'be'
p1532
F0.0003125139515156927
sS'bf'
p1533
F0.8809523809523809
sS'bg'
p1534
F0.5384615384615384
sS'b`'
p1535
F1.0
sS'ba'
p1536
F0.017530251318647223
sS'bb'
p1537
F0.046511627906976744
sS'bc'
p1538
F0.5
sS'bl'
p1539
F0.0010095344924284913
sS'bm'
p1540
F0.08227848101265822
sS'bn'
p1541
F0.3333333333333333
sS'bo'
p1542
F0.010240963855421687
sS'bh'
p1543
F0.7435897435897436
sS'bi'
p1544
F0.011661052086032651
sS'bj'
p1545
F0.006329113924050633
sS'bk'
p1546
F0.5
sS'bt'
p1547
F0.13917525773195877
sS'bu'
p1548
F0.0004884004884004884
sS'bv'
p1549
F0.0228310502283105
sS'bw'
p1550
F0.8125
sS'bp'
p1551
F0.6538461538461539
sS'br'
p1552
F0.004428904428904429
sS'bs'
p1553
F0.03736413043478261
sS'by'
p1554
F0.000690846286701209
sS'b{'
p1555
F0.0
sS'.('
p1556
F1.0
sS'.)'
p1557
F1.0
sS'.*'
p1558
F1.0
sS'.,'
p1559
F1.0
sS'.-'
p1560
F0.9117647058823529
sS'u;'
p1561
F1.0
sS'./'
p1562
F0.6428571428571429
sS'u1'
p1563
F1.0
sS'.&'
p1564
F1.0
sS".'"
p1565
F0.8090909090909091
sS'u-'
p1566
F0.5294117647058824
sS'.9'
p1567
F0.6190476190476191
sS'.:'
p1568
F1.0
sS'u.'
p1569
F0.24285714285714285
sS'u)'
p1570
F1.0
sS'u('
p1571
F1.0
sS'.?'
p1572
F1.0
sS'.0'
p1573
F0.0
sS'.1'
p1574
F0.706140350877193
sS'.2'
p1575
F0.7721518987341772
sS'.3'
p1576
F0.6301369863013698
sS'u!'
p1577
F1.0
sS'.5'
p1578
F0.3986013986013986
sS'.6'
p1579
F0.5714285714285714
sS'.7'
p1580
F0.7176470588235294
sS'.h'
p1581
F0.9970793080206695
sS'.i'
p1582
F0.9983366600133067
sS'.j'
p1583
F0.9919517102615694
sS'.k'
p1584
F0.951048951048951
sS'.l'
p1585
F0.9777227722772277
sS'ux'
p1586
F0.0
sS'.n'
p1587
F0.9477977161500816
sS';b'
p1588
F1.0
sS'uu'
p1589
F0.4098360655737705
sS'ut'
p1590
F0.016081177308331356
sS'.b'
p1591
F0.9951845906902087
sS'.c'
p1592
F0.9348561759729273
sS'uq'
p1593
F0.2
sS'up'
p1594
F0.020544242205802848
sS'us'
p1595
F0.014280697647196534
sS'ur'
p1596
F0.002504796418674057
sS'.x'
p1597
F1.0
sS'ul'
p1598
F0.006178961019147151
sS'uo'
p1599
F0.16049382716049382
sS'un'
p1600
F0.004328177709884794
sS'ui'
p1601
F0.02117887216126563
sS'uh'
p1602
F0.7738853503184714
sS'uk'
p1603
F0.5868544600938967
sS'uj'
p1604
F0.37777777777777777
sS'ue'
p1605
F0.010050251256281407
sS'ud'
p1606
F0.047713156408808584
sS'ug'
p1607
F0.022813005209268905
sS'.s'
p1608
F0.9419655876348789
sS'ua'
p1609
F0.07132337471070903
sS'.u'
p1610
F0.9832775919732442
sS'uc'
p1611
F0.05381233894194331
sS'.w'
p1612
F0.9977324263038548
sS'gw'
p1613
F0.9842460615153789
sS'gv'
p1614
F0.993421052631579
sS'gu'
p1615
F0.14448783418443978
sS'gt'
p1616
F0.8993217784476262
sS'gs'
p1617
F0.41956586381207256
sS'gr'
p1618
F0.06690269808326212
sS'gq'
p1619
F1.0
sS'gp'
p1620
F0.9897959183673469
sS'g{'
p1621
F0.0
sS'gz'
p1622
F0.42857142857142855
sS'gy'
p1623
F0.24348958333333334
sS'gg'
p1624
F0.209799861973775
sS'gf'
p1625
F0.9539877300613497
sS'ge'
p1626
F0.04370980012448994
sS'gd'
p1627
F0.9440459110473458
sS'gc'
p1628
F1.0
sS'gb'
p1629
F0.9673684210526315
sS'ga'
p1630
F0.3872955173146378
sS'g`'
p1631
F1.0
sS'go'
p1632
F0.28161209068010074
sS'gn'
p1633
F0.14026275115919629
sS'gm'
p1634
F0.7865546218487395
sS'gl'
p1635
F0.18242766407904024
sS'gk'
p1636
F0.9166666666666666
sS'gj'
p1637
F1.0
sS'gi'
p1638
F0.25594273365748244
sS'gh'
p1639
F0.12301038062283737
sS'}w'
p1640
F1.0
sS'g7'
p1641
F1.0
sS'g6'
p1642
F1.0
sS'g5'
p1643
F1.0
sS'g4'
p1644
F1.0
sS'g3'
p1645
F1.0
sS'g2'
p1646
F1.0
sS'g1'
p1647
F1.0
sS'g0'
p1648
F1.0
sS'g?'
p1649
F1.0
sS'g;'
p1650
F1.0
sS'g:'
p1651
F1.0
sS'g9'
p1652
F1.0
sS'g8'
p1653
F1.0
sS"g'"
p1654
F0.7616707616707616
sS'g&'
p1655
F1.0
sS'g$'
p1656
F1.0
sS'g!'
p1657
F1.0
sS'g/'
p1658
F0.0
sS'g.'
p1659
F0.8872748402091807
sS'g-'
p1660
F0.31876606683804626
sS'g,'
p1661
F1.0
sS'g)'
p1662
F1.0
sS'g('
p1663
F1.0
sS'zl'
p1664
F0.03571428571428571
sS'zm'
p1665
F0.8636363636363636
sS'zo'
p1666
F0.048034934497816595
sS'zh'
p1667
F0.625
sS'zi'
p1668
F0.037037037037037035
sS'zj'
p1669
F1.0
sS'zk'
p1670
F0.13333333333333333
sS'zd'
p1671
F1.0
sS'ze'
p1672
F0.00246669955599408
sS'zf'
p1673
F0.875
sS'zg'
p1674
F0.13636363636363635
sS'z`'
p1675
F1.0
sS'za'
p1676
F0.02916160388821385
sS'zb'
p1677
F0.4375
sS'zc'
p1678
F1.0
sS'zy'
p1679
F0.0
sS'zz'
p1680
F0.0
sS'zt'
p1681
F0.8333333333333334
sS'zu'
p1682
F0.0625
sS'zv'
p1683
F0.1111111111111111
sS'zw'
p1684
F0.7727272727272727
sS'zp'
p1685
F1.0
sS'zq'
p1686
F0.0
sS'zr'
p1687
F0.5555555555555556
sS'zs'
p1688
F0.875
sS'3y'
p1689
F1.0
sS'3s'
p1690
F1.0
sS'3r'
p1691
F0.18181818181818182
sS'3q'
p1692
F1.0
sS'3p'
p1693
F1.0
sS'3w'
p1694
F1.0
sS'3v'
p1695
F1.0
sS'3u'
p1696
F1.0
sS'3t'
p1697
F0.8604651162790697
sS'3j'
p1698
F1.0
sS'3i'
p1699
F1.0
sS'3h'
p1700
F1.0
sS'3o'
p1701
F1.0
sS'3n'
p1702
F1.0
sS'3m'
p1703
F0.9444444444444444
sS'3l'
p1704
F1.0
sS'3c'
p1705
F1.0
sS'3b'
p1706
F1.0
sS'3a'
p1707
F0.972972972972973
sS'3g'
p1708
F1.0
sS'3f'
p1709
F1.0
sS'3e'
p1710
F1.0
sS'3d'
p1711
F0.5625
sS'z,'
p1712
F1.0
sS'z-'
p1713
F0.13333333333333333
sS'z.'
p1714
F0.6764705882352942
sS'z('
p1715
F1.0
sS"z'"
p1716
F0.65
sS'z?'
p1717
F1.0
sS'z;'
p1718
F1.0
sS'z1'
p1719
F1.0
sS'3;'
p1720
F1.0
sS'3:'
p1721
F0.5882352941176471
sS'39'
p1722
F0.0
sS'38'
p1723
F0.0
sS'33'
p1724
F0.0
sS'32'
p1725
F0.0
sS'31'
p1726
F0.013888888888888888
sS'30'
p1727
F0.0
sS'37'
p1728
F0.0
sS'36'
p1729
F0.0
sS'35'
p1730
F0.0
sS'34'
p1731
F0.0
sS'3*'
p1732
F0.0
sS'3)'
p1733
F1.0
sS'3('
p1734
F1.0
sS'3/'
p1735
F0.0
sS'3.'
p1736
F0.711764705882353
sS'3-'
p1737
F0.15625
sS'3,'
p1738
F0.782608695652174
sS"3'"
p1739
F0.6
sS'3%'
p1740
F0.0
sS'h3'
p1741
F1.0
sS'h7'
p1742
F1.0
sS',&'
p1743
F1.0
sS",'"
p1744
F1.0
sS',$'
p1745
F1.0
sS',,'
p1746
F0.9863013698630136
sS'%,'
p1747
F1.0
sS's0'
p1748
F1.0
sS'%)'
p1749
F1.0
sS'%('
p1750
F1.0
sS',*'
p1751
F1.0
sS"%'"
p1752
F1.0
sS',('
p1753
F1.0
sS'%;'
p1754
F1.0
sS',)'
p1755
F1.0
sS'lf'
p1756
F0.33894973322100536
sS'lg'
p1757
F0.7352216748768473
sS'ld'
p1758
F0.0865566037735849
sS'le'
p1759
F0.027961176864332006
sS'lb'
p1760
F0.8764789398958827
sS'lc'
p1761
F0.8563115487914056
sS'l`'
p1762
F1.0
sS's*'
p1763
F1.0
sS'ln'
p1764
F0.7336814621409922
sS'lo'
p1765
F0.12412556053811659
sS'll'
p1766
F0.031116312858180645
sS'lm'
p1767
F0.46641615782057305
sS'lj'
p1768
F1.0
sS's)'
p1769
F1.0
sS'lh'
p1770
F0.9293103448275862
sS'li'
p1771
F0.06021165308356648
sS'lv'
p1772
F0.15967623252391464
sS'lw'
p1773
F0.6910569105691057
sS'lt'
p1774
F0.4071802543006732
sS's('
p1775
F0.9971751412429378
sS'lr'
p1776
F0.7173213135866066
sS'ls'
p1777
F0.31640625
sS'lp'
p1778
F0.6743639921722113
sS'lq'
p1779
F0.956989247311828
sS'h)'
p1780
F1.0
sS's/'
p1781
F0.6666666666666666
sS'lz'
p1782
F0.18518518518518517
sS'l{'
p1783
F1.0
sS'lx'
p1784
F1.0
sS's.'
p1785
F0.9004734350341925
sS'%m'
p1786
F1.0
sS'%l'
p1787
F1.0
sS'%o'
p1788
F1.0
sS'%n'
p1789
F1.0
sS'%i'
p1790
F1.0
sS',0'
p1791
F0.01348314606741573
sS'h6'
p1792
F0.6666666666666666
sS'%g'
p1793
F1.0
sS',1'
p1794
F0.9642058165548099
sS'%a'
p1795
F1.0
sS'%c'
p1796
F1.0
sS'%b'
p1797
F1.0
sS'%u'
p1798
F1.0
sS'%t'
p1799
F1.0
sS'%p'
p1800
F1.0
sS'%s'
p1801
F1.0
sS'l&'
p1802
F1.0
sS"l'"
p1803
F0.588135593220339
sS'l$'
p1804
F1.0
sS'l!'
p1805
F1.0
sS'l.'
p1806
F0.9290020093770931
sS'l/'
p1807
F0.0
sS'l,'
p1808
F1.0
sS'l-'
p1809
F0.17699115044247787
sS'h('
p1810
F1.0
sS'l('
p1811
F1.0
sS',;'
p1812
F1.0
sS'l6'
p1813
F1.0
sS'l7'
p1814
F1.0
sS'l4'
p1815
F1.0
sS'l5'
p1816
F1.0
sS'l2'
p1817
F1.0
sS'l3'
p1818
F1.0
sS'l1'
p1819
F1.0
sS'l?'
p1820
F1.0
sS',9'
p1821
F0.4583333333333333
sS'l:'
p1822
F1.0
sS'l;'
p1823
F1.0
sS'l8'
p1824
F1.0
sS'l9'
p1825
F1.0
sS'8*'
p1826
F0.0
sS's['
p1827
F1.0
sS'8('
p1828
F0.5
sS'8)'
p1829
F1.0
sS'8.'
p1830
F0.8082191780821918
sS'8/'
p1831
F0.0
sS'8,'
p1832
F0.8089171974522293
sS'8-'
p1833
F0.2711864406779661
sS"8'"
p1834
F0.23076923076923078
sS'8%'
p1835
F0.0
sS'8:'
p1836
F0.3333333333333333
sS'8;'
p1837
F1.0
sS'88'
p1838
F0.0
sS'89'
p1839
F0.0
sS'82'
p1840
F0.05128205128205128
sS'83'
p1841
F0.0
sS'80'
p1842
F0.0
sS'81'
p1843
F0.0
sS'86'
p1844
F0.0
sS'87'
p1845
F0.0
sS'84'
p1846
F0.024390243902439025
sS'85'
p1847
F0.0
sS'8j'
p1848
F1.0
sS'8h'
p1849
F1.0
sS'8i'
p1850
F1.0
sS'8n'
p1851
F1.0
sS'8o'
p1852
F1.0
sS'8l'
p1853
F1.0
sS'8m'
p1854
F1.0
sS'8b'
p1855
F1.0
sS'8c'
p1856
F1.0
sS'8`'
p1857
F1.0
sS'8a'
p1858
F1.0
sS'8f'
p1859
F1.0
sS'8g'
p1860
F1.0
sS'8d'
p1861
F1.0
sS'8e'
p1862
F0.3333333333333333
sS'8y'
p1863
F1.0
sS'8r'
p1864
F1.0
sS'8s'
p1865
F1.0
sS'8p'
p1866
F1.0
sS'8v'
p1867
F1.0
sS'8w'
p1868
F1.0
sS'8t'
p1869
F0.5490196078431373
sS'8u'
p1870
F1.0
sS'h2'
p1871
F1.0
sS'9`'
p1872
F1.0
sS'},'
p1873
F1.0
sS'sz'
p1874
F0.4166666666666667
sS',d'
p1875
F0.9992101105845181
sS'sx'
p1876
F0.8
sS',n'
p1877
F1.0
sS',o'
p1878
F1.0
sS'sq'
p1879
F0.333889816360601
sS'!a'
p1880
F1.0
sS',m'
p1881
F1.0
sS'*y'
p1882
F0.0
sS'*z'
p1883
F0.0
sS',j'
p1884
F1.0
sS',k'
p1885
F1.0
sS'hy'
p1886
F0.1049317943336831
sS',h'
p1887
F1.0
sS',i'
p1888
F1.0
sS'*b'
p1889
F0.0
sS',v'
p1890
F1.0
sS'sj'
p1891
F0.9931506849315068
sS'si'
p1892
F0.2800261096605744
sS'hr'
p1893
F0.14965814130159535
sS',u'
p1894
F1.0
sS'hs'
p1895
F0.7665835411471321
sS',r'
p1896
F1.0
sS'hp'
p1897
F0.9637681159420289
sS',s'
p1898
F1.0
sS'hq'
p1899
F0.6949152542372882
sS',p'
p1900
F1.0
sS'!m'
p1901
F1.0
sS',q'
p1902
F1.0
sS'*0'
p1903
F0.0
sS'hw'
p1904
F0.8669328010645376
sS'ht'
p1905
F0.42556071152358854
sS'**'
p1906
F0.0
sS'*&'
p1907
F0.0
sS'hu'
p1908
F0.0490625
sS'hk'
p1909
F0.8860759493670886
sS',z'
p1910
F1.0
sS'hh'
p1911
F0.9751908396946565
sS'hi'
p1912
F0.04598377043396448
sS',x'
p1913
F1.0
sS'hn'
p1914
F0.26559215136650316
sS',y'
p1915
F1.0
sS'ho'
p1916
F0.07144539160740357
sS'hl'
p1917
F0.4606965174129353
sS'hb'
p1918
F0.7353689567430025
sS'%.'
p1919
F1.0
sS'q3'
p1920
F0.0
sS"q'"
p1921
F0.0
sS'q)'
p1922
F0.0
sS'q,'
p1923
F1.0
sS'q.'
p1924
F0.36
sS'qr'
p1925
F1.0
sS'qu'
p1926
F0.0
sS'qt'
p1927
F1.0
sS'qw'
p1928
F0.5
sS'qv'
p1929
F0.0
sS'qa'
p1930
F1.0
sS'qc'
p1931
F1.0
sS'qb'
p1932
F1.0
sS'qe'
p1933
F0.5
sS'qf'
p1934
F1.0
sS'qi'
p1935
F1.0
sS'qh'
p1936
F1.0
sS'ql'
p1937
F0.0
sS'qo'
p1938
F1.0
sS'qn'
p1939
F0.0
sS'la'
p1940
F0.1417534119824196
sS'ck'
p1941
F0.0012598425196850393
sS'cj'
p1942
F0.9411764705882353
sS'ci'
p1943
F0.026959179218511244
sS'ch'
p1944
F0.005929574895092137
sS'co'
p1945
F0.008532242710573635
sS'cn'
p1946
F0.6016949152542372
sS'cm'
p1947
F0.8428571428571429
sS'cl'
p1948
F0.023909249563699827
sS'cc'
p1949
F0.12732474964234622
sS'cb'
p1950
F0.856353591160221
sS'ca'
p1951
F0.029564157269125268
sS'c`'
p1952
F1.0
sS'cg'
p1953
F0.8933333333333333
sS'cf'
p1954
F0.8909952606635071
sS'ce'
p1955
F0.007660833986245321
sS'cd'
p1956
F0.8211009174311926
sS'cz'
p1957
F0.05263157894736842
sS'cy'
p1958
F0.00586756077116513
sS'cs'
p1959
F0.40430820215410107
sS'cr'
p1960
F0.032467532467532464
sS'cq'
p1961
F0.0880503144654088
sS'cp'
p1962
F0.9783132530120482
sS'cw'
p1963
F0.9759036144578314
sS'cv'
p1964
F0.9866666666666667
sS'cu'
p1965
F0.014411027568922305
sS'ct'
p1966
F0.017016879090595936
sS'lu'
p1967
F0.05412935323383085
sS'c)'
p1968
F0.8732394366197183
sS'c('
p1969
F1.0
sS'c/'
p1970
F0.0
sS'c.'
p1971
F0.4179389312977099
sS'c-'
p1972
F0.26582278481012656
sS'c,'
p1973
F1.0
sS'c!'
p1974
F1.0
sS"c'"
p1975
F0.6470588235294118
sS'c&'
p1976
F1.0
sS'c;'
p1977
F1.0
sS'c:'
p1978
F1.0
sS'c8'
p1979
F1.0
sS'c?'
p1980
F1.0
sS'c1'
p1981
F1.0
sS'c6'
p1982
F1.0
sS'ly'
p1983
F0.01660432959310892
sS'v`'
p1984
F1.0
sS'va'
p1985
F0.0066804883667357755
sS'vb'
p1986
F1.0
sS'vc'
p1987
F0.875
sS'vd'
p1988
F0.5
sS've'
p1989
F0.00019511560599655295
sS'vf'
p1990
F1.0
sS'vh'
p1991
F1.0
sS'vi'
p1992
F0.0015498726890291155
sS'vk'
p1993
F1.0
sS'vl'
p1994
F0.2857142857142857
sS'vm'
p1995
F1.0
sS'vn'
p1996
F0.6
sS'vo'
p1997
F0.0037593984962406013
sS'vp'
p1998
F0.7
sS'vq'
p1999
F1.0
sS'vr'
p2000
F0.1724137931034483
sS'vs'
p2001
F0.37142857142857144
sS'vt'
p2002
F0.7857142857142857
sS'vu'
p2003
F0.023255813953488372
sS'vv'
p2004
F0.3333333333333333
sS'vw'
p2005
F1.0
sS'vy'
p2006
F0.0
sS'vz'
p2007
F0.0
sS'%h'
p2008
F1.0
sS'/o'
p2009
F0.043478260869565216
sS'/m'
p2010
F0.25
sS'/l'
p2011
F0.16666666666666666
sS'/i'
p2012
F0.5
sS'/h'
p2013
F0.5
sS'/g'
p2014
F0.6666666666666666
sS'/f'
p2015
F0.0
sS'/d'
p2016
F0.2857142857142857
sS'/c'
p2017
F0.46153846153846156
sS'/a'
p2018
F0.5
sS'/w'
p2019
F0.5
sS'/u'
p2020
F0.0
sS'/s'
p2021
F0.0
sS'/r'
p2022
F0.0
sS'%f'
p2023
F1.0
sS'v&'
p2024
F1.0
sS"v'"
p2025
F0.08333333333333333
sS'v('
p2026
F1.0
sS'v,'
p2027
F1.0
sS'ts'
p2028
F0.2818082391542107
sS'v.'
p2029
F0.08547008547008547
sS'v:'
p2030
F1.0
sS'/.'
p2031
F1.0
sS'/*'
p2032
F0.0
sS'/9'
p2033
F0.0
sS'/8'
p2034
F0.0
sS'/7'
p2035
F0.0
sS'/6'
p2036
F0.0
sS'/5'
p2037
F0.0
sS'/4'
p2038
F0.0
sS'/3'
p2039
F0.0
sS'/2'
p2040
F0.0
sS'/1'
p2041
F0.0
sS'tq'
p2042
F1.0
sS'tl'
p2043
F0.29915912031047864
sS'tm'
p2044
F0.7255666585425299
sS'-n'
p2045
F0.4353448275862069
sS'l)'
p2046
F0.9807692307692307
sS'th'
p2047
F0.03692734712564741
sS'h:'
p2048
F1.0
sS'h;'
p2049
F1.0
sS'h8'
p2050
F1.0
sS'h9'
p2051
F1.0
sS'h?'
p2052
F1.0
sS"!'"
p2053
F1.0
sS'!)'
p2054
F1.0
sS'!('
p2055
F1.0
sS'h0'
p2056
F1.0
sS'h1'
p2057
F1.0
sS'!-'
p2058
F1.0
sS'!,'
p2059
F1.0
sS'h4'
p2060
F1.0
sS'h5'
p2061
F1.0
sS'h*'
p2062
F1.0
sS'!3'
p2063
F1.0
sS'!2'
p2064
F1.0
sS'h.'
p2065
F0.9014732965009208
sS'h/'
p2066
F1.0
sS'h,'
p2067
F1.0
sS'h-'
p2068
F0.20967741935483872
sS'!;'
p2069
F1.0
sS'h!'
p2070
F1.0
sS'h&'
p2071
F1.0
sS"h'"
p2072
F0.6430517711171662
sS'h$'
p2073
F1.0
sS'-u'
p2074
F0.22699386503067484
sS'hz'
p2075
F0.32
sS'!`'
p2076
F1.0
sS'!c'
p2077
F1.0
sS'!b'
p2078
F1.0
sS'!e'
p2079
F1.0
sS'!d'
p2080
F1.0
sS'!g'
p2081
F1.0
sS'!f'
p2082
F1.0
sS'!i'
p2083
F1.0
sS'!h'
p2084
F1.0
sS'!k'
p2085
F1.0
sS'!j'
p2086
F1.0
sS'hv'
p2087
F0.9407894736842105
sS'!l'
p2088
F1.0
sS'!o'
p2089
F1.0
sS'!n'
p2090
F1.0
sS'hj'
p2091
F0.9809523809523809
sS'!p'
p2092
F1.0
sS'!s'
p2093
F1.0
sS'!r'
p2094
F1.0
sS'!u'
p2095
F1.0
sS'!t'
p2096
F1.0
sS'!w'
p2097
F1.0
sS'hm'
p2098
F0.6941340782122905
sS'!y'
p2099
F1.0
sS'hc'
p2100
F0.920120572720422
sS'h`'
p2101
F1.0
sS'ha'
p2102
F0.08906598197849046
sS'hf'
p2103
F0.8994910941475827
sS'hg'
p2104
F0.967741935483871
sS'hd'
p2105
F0.8953488372093024
sS'he'
p2106
F0.003702595859236683
sS'{0'
p2107
F0.0
sS'tb'
p2108
F0.9679685304860915
sS'4:'
p2109
F0.5
sS'4;'
p2110
F1.0
sS'48'
p2111
F0.0
sS'49'
p2112
F0.0
sS'46'
p2113
F0.0
sS'47'
p2114
F0.0
sS'44'
p2115
F0.0
sS'45'
p2116
F0.0
sS'42'
p2117
F0.0
sS'43'
p2118
F0.024390243902439025
sS'40'
p2119
F0.0
sS'41'
p2120
F0.0
sS'4.'
p2121
F0.7635135135135135
sS'4/'
p2122
F0.0
sS'4,'
p2123
F0.7307692307692307
sS'4-'
p2124
F0.125
sS'4('
p2125
F1.0
sS'4)'
p2126
F0.9622641509433962
sS"4'"
p2127
F0.08695652173913043
sS'4%'
p2128
F0.0
sS'4!'
p2129
F1.0
sS'{t'
p2130
F0.0
sS'4y'
p2131
F1.0
sS'4v'
p2132
F1.0
sS'4w'
p2133
F1.0
sS'4t'
p2134
F0.6153846153846154
sS'4u'
p2135
F1.0
sS'4r'
p2136
F1.0
sS'4s'
p2137
F1.0
sS'4p'
p2138
F1.0
sS'4q'
p2139
F1.0
sS'4n'
p2140
F1.0
sS'4o'
p2141
F1.0
sS'4l'
p2142
F1.0
sS'4m'
p2143
F1.0
sS'4h'
p2144
F1.0
sS'4i'
p2145
F1.0
sS'4f'
p2146
F1.0
sS'4g'
p2147
F1.0
sS'4d'
p2148
F1.0
sS'4e'
p2149
F1.0
sS'4b'
p2150
F1.0
sS'4c'
p2151
F0.9375
sS'4a'
p2152
F1.0
s.